; Function Attrs: nounwind sspstrong uwtable
define dso_local void @qcow2_alloc_cluster_abort(ptr noundef %bs, ptr noundef readonly captures(none) %m) #0 {
entry:
  %opaque = getelementptr inbounds nuw i8, ptr %bs, i64 24
  %0 = load ptr, ptr %opaque, align 8
  %1 = getelementptr i8, ptr %bs, i64 16840
  %bs.val5 = load ptr, ptr %1, align 8
  %2 = getelementptr i8, ptr %0, i64 480
  %bs.val.val = load ptr, ptr %2, align 8
  %cmp.i.not = icmp eq ptr %bs.val.val, %bs.val5
  br i1 %cmp.i.not, label %land.lhs.true, label %if.end

land.lhs.true:                                    ; preds = %entry
  %keep_old_clusters = getelementptr inbounds nuw i8, ptr %m, i64 20
  %3 = load i8, ptr %keep_old_clusters, align 4
  %tobool = trunc i8 %3 to i1
  br i1 %tobool, label %if.end, label %if.then

if.then:                                          ; preds = %land.lhs.true
  %alloc_offset = getelementptr inbounds nuw i8, ptr %m, i64 8
  %4 = load i64, ptr %alloc_offset, align 8
  %nb_clusters = getelementptr inbounds nuw i8, ptr %m, i64 16
  %5 = load i32, ptr %nb_clusters, align 8
  %6 = load i32, ptr %0, align 8
  %shl = shl i32 %5, %6
  %conv = sext i32 %shl to i64
  tail call void @qcow2_free_clusters(ptr noundef nonnull %bs, i64 noundef %4, i64 noundef %conv, i32 noundef 0) #13
  br label %if.end

if.end:                                           ; preds = %if.then, %land.lhs.true, %entry
  ret void
}